(dp1
S'files'
p2
(dp3
S'django_contrib_staticfiles_management'
p4
(dp5
S'index'
p6
(dp7
S'html_filename'
p8
S'django_contrib_staticfiles_management.html'
p9
sS'name'
p10
S'django.contrib.staticfiles.management'
p11
sS'nums'
p12
ccopy_reg
_reconstructor
p13
(ccoverage.results
Numbers
p14
c__builtin__
object
p15
NtRp16
(dp17
S'n_files'
p18
I1
sS'n_branches'
p19
I0
sS'n_statements'
p20
I0
sS'n_excluded'
p21
I0
sS'n_partial_branches'
p22
I0
sS'n_missing'
p23
I0
sS'n_missing_branches'
p24
I0
sbssS'hash'
p25
S'\xca\xf5\x9f\x7f\x88\xdfa\x831|T\x1d\xbc}\xa5v'
p26
ssS'manage'
p27
(dp28
g6
(dp29
g8
S'manage.html'
p30
sg10
g27
sg12
g13
(g14
g15
NtRp31
(dp32
g18
I1
sg19
I0
sg20
I1
sg21
I0
sg22
I0
sg23
I0
sg24
I0
sbssg25
S'\xca\xdb\xee\xd5W\xa2\xe1\x97\xd8\t\xe5\x01\xb5\x8eT\x0f'
p33
ssS'django_utils_xmlutils'
p34
(dp35
g6
(dp36
g8
S'django_utils_xmlutils.html'
p37
sg10
S'django.utils.xmlutils'
p38
sg12
g13
(g14
g15
NtRp39
(dp40
g18
I1
sg19
I0
sg20
I9
sg21
I0
sg22
I0
sg23
I6
sg24
I0
sbssg25
S'#\x9f\x92\x9d2\xeb\xac\x95\x9a\x19\x9e\xe8\xd6 \xaf\x8c'
p41
ssS'django_contrib_auth_migrations_0005_alter_user_last_login_null'
p42
(dp43
g6
(dp44
g8
S'django_contrib_auth_migrations_0005_alter_user_last_login_null.html'
p45
sg10
S'django.contrib.auth.migrations.0005_alter_user_last_login_null'
p46
sg12
g13
(g14
g15
NtRp47
(dp48
g18
I1
sg19
I0
sg20
I5
sg21
I0
sg22
I0
sg23
I0
sg24
I0
sbssg25
S'\x0f/%i#\xd1R\xc3\x10\x95\xeeF\x0b\xc6L\x8e'
p49
ssS'django_contrib_sessions_migrations_0001_initial'
p50
(dp51
g6
(dp52
g8
S'django_contrib_sessions_migrations_0001_initial.html'
p53
sg10
S'django.contrib.sessions.migrations.0001_initial'
p54
sg12
g13
(g14
g15
NtRp55
(dp56
g18
I1
sg19
I0
sg20
I6
sg21
I0
sg22
I0
sg23
I0
sg24
I0
sbssg25
S'\xfc\xcai\xad\x84Y\\"\xe9\xdf\x17\xf3\x1fA\xf0M'
p57
ssS'PIL_PpmImagePlugin'
p58
(dp59
g6
(dp60
g8
S'PIL_PpmImagePlugin.html'
p61
sg10
S'PIL.PpmImagePlugin'
p62
sg12
g13
(g14
g15
NtRp63
(dp64
g18
I1
sg19
I0
sg20
I96
sg21
I0
sg22
I0
sg23
I72
sg24
I0
sbssg25
S'\x9e}\xb6\xb8\xe4cR3\x17\xf0FFPb\xe7\x01'
p65
ssS'django_db_migrations_operations'
p66
(dp67
g6
(dp68
g8
S'django_db_migrations_operations.html'
p69
sg10
S'django.db.migrations.operations'
p70
sg12
g13
(g14
g15
NtRp71
(dp72
g18
I1
sg19
I0
sg20
I4
sg21
I0
sg22
I0
sg23
I0
sg24
I0
sbssg25
S'1\x1a\x1e\xd6\x1e4\xf5*\xc0\x8e\xf0\xc2\xfd-9/'
p73
ssS'django_db_migrations_writer'
p74
(dp75
g6
(dp76
g8
S'django_db_migrations_writer.html'
p77
sg10
S'django.db.migrations.writer'
p78
sg12
g13
(g14
g15
NtRp79
(dp80
g18
I1
sg19
I0
sg20
I314
sg21
I0
sg22
I0
sg23
I270
sg24
I0
sbssg25
S'\x08\xe6Oz\x10\xca\xeecw\x0f\xadI\n\x9e\x12{'
p81
ssS'portal_migrations_0003_auto_20150612_1830'
p82
(dp83
g6
(dp84
g8
S'portal_migrations_0003_auto_20150612_1830.html'
p85
sg10
S'portal.migrations.0003_auto_20150612_1830'
p86
sg12
g13
(g14
g15
NtRp87
(dp88
g18
I1
sg19
I0
sg20
I5
sg21
I0
sg22
I0
sg23
I0
sg24
I0
sbssg25
S'\xbc^;\xe1\\\x91;DQ\xb8G\x15X1\xf6\xec'
p89
ssS'django_core_management_commands_migrate'
p90
(dp91
g6
(dp92
g8
S'django_core_management_commands_migrate.html'
p93
sg10
S'django.core.management.commands.migrate'
p94
sg12
g13
(g14
g15
NtRp95
(dp96
g18
I1
sg19
I0
sg20
I197
sg21
I0
sg22
I0
sg23
I69
sg24
I0
sbssg25
S'q\x83\xed\xfe)\xbdY+\x03\x8d\x12<t\xb7_d'
p97
ssS'PIL_ImageColor'
p98
(dp99
g6
(dp100
g8
S'PIL_ImageColor.html'
p101
sg10
S'PIL.ImageColor'
p102
sg12
g13
(g14
g15
NtRp103
(dp104
g18
I1
sg19
I0
sg20
I49
sg21
I0
sg22
I0
sg23
I44
sg24
I0
sbssg25
S'\x94\xed\x18\xd89)\x0feXcR\xf9\xf8?e,'
p105
ssS'django_contrib_auth_migrations_0003_alter_user_email_max_length'
p106
(dp107
g6
(dp108
g8
S'django_contrib_auth_migrations_0003_alter_user_email_max_length.html'
p109
sg10
S'django.contrib.auth.migrations.0003_alter_user_email_max_length'
p110
sg12
g13
(g14
g15
NtRp111
(dp112
g18
I1
sg19
I0
sg20
I5
sg21
I0
sg22
I0
sg23
I0
sg24
I0
sbssg25
S'K\xb3\x91\x84J8l\x16h\x95\xb1R"\xc7D\xc1'
p113
ssS'django_core_management_commands_createcachetable'
p114
(dp115
g6
(dp116
g8
S'django_core_management_commands_createcachetable.html'
p117
sg10
S'django.core.management.commands.createcachetable'
p118
sg12
g13
(g14
g15
NtRp119
(dp120
g18
I1
sg19
I0
sg20
I61
sg21
I0
sg22
I0
sg23
I40
sg24
I0
sbssg25
S'BOg\xf3C\x9er\xb2\xb0k\xa4\xa1\x07\xb4+D'
p121
ssS'publications_migrations_0001_initial'
p122
(dp123
g6
(dp124
g8
S'publications_migrations_0001_initial.html'
p125
sg10
S'publications.migrations.0001_initial'
p126
sg12
g13
(g14
g15
NtRp127
(dp128
g18
I1
sg19
I0
sg20
I7
sg21
I0
sg22
I0
sg23
I0
sg24
I0
sbssg25
S'\xc35@\x19\nlT-\xebk{,B@i7'
p129
ssS'PIL_JpegPresets'
p130
(dp131
g6
(dp132
g8
S'PIL_JpegPresets.html'
p133
sg10
S'PIL.JpegPresets'
p134
sg12
g13
(g14
g15
NtRp135
(dp136
g18
I1
sg19
I0
sg20
I1
sg21
I0
sg22
I0
sg23
I0
sg24
I0
sbssg25
S'\x04\x08\x00\x12\x14o\xe9\xc2\x83\xf0\x1e\x07B\xaaH '
p137
ssS'django_db_migrations'
p138
(dp139
g6
(dp140
g8
S'django_db_migrations.html'
p141
sg10
S'django.db.migrations'
p142
sg12
g13
(g14
g15
NtRp143
(dp144
g18
I1
sg19
I0
sg20
I2
sg21
I0
sg22
I0
sg23
I0
sg24
I0
sbssg25
S'`j\xe71\xb5\xd6\x16\xd3Kw\xba^\x04:M\xf2'
p145
ssS'portal_migrations_0001_initial'
p146
(dp147
g6
(dp148
g8
S'portal_migrations_0001_initial.html'
p149
sg10
S'portal.migrations.0001_initial'
p150
sg12
g13
(g14
g15
NtRp151
(dp152
g18
I1
sg19
I0
sg20
I5
sg21
I0
sg22
I0
sg23
I0
sg24
I0
sbssg25
S'\x9a\x93\x06\xbaT\xd0?\xce\xb8\xfaN\xf5H\x1d\xd0U'
p153
ssS'django_contrib_auth_migrations'
p154
(dp155
g6
(dp156
g8
S'django_contrib_auth_migrations.html'
p157
sg10
S'django.contrib.auth.migrations'
p158
sg12
g13
(g14
g15
NtRp159
(dp160
g18
I1
sg19
I0
sg20
I0
sg21
I0
sg22
I0
sg23
I0
sg24
I0
sbssg25
S'\xca\xf5\x9f\x7f\x88\xdfa\x831|T\x1d\xbc}\xa5v'
p161
ssS'portal_migrations_0004_auto_20150612_1854'
p162
(dp163
g6
(dp164
g8
S'portal_migrations_0004_auto_20150612_1854.html'
p165
sg10
S'portal.migrations.0004_auto_20150612_1854'
p166
sg12
g13
(g14
g15
NtRp167
(dp168
g18
I1
sg19
I0
sg20
I5
sg21
I0
sg22
I0
sg23
I0
sg24
I0
sbssg25
S"\x8bg\xad!?\x13'-\xfa/2\x9ff9-\xe9"
p169
ssS'xml_dom_pulldom'
p170
(dp171
g6
(dp172
g8
S'xml_dom_pulldom.html'
p173
sg10
S'xml.dom.pulldom'
p174
sg12
g13
(g14
g15
NtRp175
(dp176
g18
I1
sg19
I0
sg20
I270
sg21
I0
sg22
I0
sg23
I270
sg24
I0
sbssg25
S'!B\x95\xcd\xaah\x00\xa0\x9fgJH\\\xa3\xcdo'
p177
ssS'django_db_migrations_state'
p178
(dp179
g6
(dp180
g8
S'django_db_migrations_state.html'
p181
sg10
S'django.db.migrations.state'
p182
sg12
g13
(g14
g15
NtRp183
(dp184
g18
I1
sg19
I0
sg20
I310
sg21
I0
sg22
I0
sg23
I79
sg24
I0
sbssg25
S'\xca\xf5\x96\x01\x01\x98\x8aH\xf1v\xac\x98w\xf5I\xdd'
p185
ssS'xml_sax_expatreader'
p186
(dp187
g6
(dp188
g8
S'xml_sax_expatreader.html'
p189
sg10
S'xml.sax.expatreader'
p190
sg12
g13
(g14
g15
NtRp191
(dp192
g18
I1
sg19
I0
sg20
I279
sg21
I0
sg22
I0
sg23
I279
sg24
I0
sbssg25
S'\x9eRmo:\x95|}@KT\xdb\x16o\xdf\xf7'
p193
ssS'django_db_migrations_optimizer'
p194
(dp195
g6
(dp196
g8
S'django_db_migrations_optimizer.html'
p197
sg10
S'django.db.migrations.optimizer'
p198
sg12
g13
(g14
g15
NtRp199
(dp200
g18
I1
sg19
I0
sg20
I99
sg21
I0
sg22
I0
sg23
I75
sg24
I0
sbssg25
S'\x82\x80n]]\xea#\xd4$7\xdf\xb0\xb1\x18\r\x0e'
p201
ssS'django_contrib_auth_migrations_0006_require_contenttypes_0002'
p202
(dp203
g6
(dp204
g8
S'django_contrib_auth_migrations_0006_require_contenttypes_0002.html'
p205
sg10
S'django.contrib.auth.migrations.0006_require_contenttypes_0002'
p206
sg12
g13
(g14
g15
NtRp207
(dp208
g18
I1
sg19
I0
sg20
I5
sg21
I0
sg22
I0
sg23
I0
sg24
I0
sbssg25
S'@\xe0\xa3\r(\xf5\xd3p\x1f\xa7\xe5a`\x84\x07['
p209
ssS'django_core_cache_backends_dummy'
p210
(dp211
g6
(dp212
g8
S'django_core_cache_backends_dummy.html'
p213
sg10
S'django.core.cache.backends.dummy'
p214
sg12
g13
(g14
g15
NtRp215
(dp216
g18
I1
sg19
I0
sg20
I30
sg21
I0
sg22
I0
sg23
I17
sg24
I0
sbssg25
S'\xc8b\xae\x11\x9b\xc6gr\x05\xc6\x91\x8fGm!\xba'
p217
ssS'xml_parsers_expat'
p218
(dp219
g6
(dp220
g8
S'xml_parsers_expat.html'
p221
sg10
S'xml.parsers.expat'
p222
sg12
g13
(g14
g15
NtRp223
(dp224
g18
I1
sg19
I0
sg20
I2
sg21
I0
sg22
I0
sg23
I2
sg24
I0
sbssg25
S'\x84V\xff\xe5G\xfa\n\xe2\xb9\\\x19\xde\xdb\xa9B\x9e'
p225
ssS'PIL_PngImagePlugin'
p226
(dp227
g6
(dp228
g8
S'PIL_PngImagePlugin.html'
p229
sg10
S'PIL.PngImagePlugin'
p230
sg12
g13
(g14
g15
NtRp231
(dp232
g18
I1
sg19
I0
sg20
I412
sg21
I0
sg22
I0
sg23
I344
sg24
I0
sbssg25
S'k\x80\x94\x08\x0e\x11W\x08\xf1\xdd\x94\xd0\x93]\xbeE'
p233
ssS'django_contrib_auth_migrations_0002_alter_permission_name_max_length'
p234
(dp235
g6
(dp236
g8
S'django_contrib_auth_migrations_0002_alter_permission_name_max_length.html'
p237
sg10
S'django.contrib.auth.migrations.0002_alter_permission_name_max_length'
p238
sg12
g13
(g14
g15
NtRp239
(dp240
g18
I1
sg19
I0
sg20
I5
sg21
I0
sg22
I0
sg23
I0
sg24
I0
sbssg25
S'\xd1\x83\xe5\xc8R\xfd\xebP\xdc\x9bRp\xebM\xaa+'
p241
ssS'django_contrib_auth_migrations_0001_initial'
p242
(dp243
g6
(dp244
g8
S'django_contrib_auth_migrations_0001_initial.html'
p245
sg10
S'django.contrib.auth.migrations.0001_initial'
p246
sg12
g13
(g14
g15
NtRp247
(dp248
g18
I1
sg19
I0
sg20
I8
sg21
I0
sg22
I0
sg23
I0
sg24
I0
sbssg25
S'\xbb\xd1\t\x8be\xc2\xe0\xf3zk\x89\x13\x1d\xfb\xa8\xd1'
p249
ssS'django_db_migrations_graph'
p250
(dp251
g6
(dp252
g8
S'django_db_migrations_graph.html'
p253
sg10
S'django.db.migrations.graph'
p254
sg12
g13
(g14
g15
NtRp255
(dp256
g18
I1
sg19
I0
sg20
I141
sg21
I0
sg22
I0
sg23
I44
sg24
I0
sbssg25
S'\xc5\n"\x9aV\xd9#\xd0\xefQ\xf2\xde\xac\xb3\xfdO'
p257
ssS'django_db_migrations_recorder'
p258
(dp259
g6
(dp260
g8
S'django_db_migrations_recorder.html'
p261
sg10
S'django.db.migrations.recorder'
p262
sg12
g13
(g14
g15
NtRp263
(dp264
g18
I1
sg19
I0
sg20
I37
sg21
I0
sg22
I0
sg23
I4
sg24
I0
sbssg25
S'\x0c\xbb62J\xe7\x9a\x15[\x13p\xc4\x85\xac\x15\xce'
p265
ssS'django_contrib_admin_migrations_0001_initial'
p266
(dp267
g6
(dp268
g8
S'django_contrib_admin_migrations_0001_initial.html'
p269
sg10
S'django.contrib.admin.migrations.0001_initial'
p270
sg12
g13
(g14
g15
NtRp271
(dp272
g18
I1
sg19
I0
sg20
I7
sg21
I0
sg22
I0
sg23
I0
sg24
I0
sbssg25
S'z\xa8.\xce\x198\x85\x1e\xa3"\xfc\xaa\x83)\xc6E'
p273
ssS'django_db_migrations_loader'
p274
(dp275
g6
(dp276
g8
S'django_db_migrations_loader.html'
p277
sg10
S'django.db.migrations.loader'
p278
sg12
g13
(g14
g15
NtRp279
(dp280
g18
I1
sg19
I0
sg20
I191
sg21
I0
sg22
I0
sg23
I78
sg24
I0
sbssg25
S'\xc3\xf9t+aeDG<\xd6-\xe8\\^\x00\xac'
p281
ssS'xml_parsers'
p282
(dp283
g6
(dp284
g8
S'xml_parsers.html'
p285
sg10
S'xml.parsers'
p286
sg12
g13
(g14
g15
NtRp287
(dp288
g18
I1
sg19
I0
sg20
I0
sg21
I0
sg22
I0
sg23
I0
sg24
I0
sbssg25
S'R4\xa6Y!0\xe8\xfc\xacK\xb9\xae\xe9iy='
p289
ssS'django_db_migrations_migration'
p290
(dp291
g6
(dp292
g8
S'django_db_migrations_migration.html'
p293
sg10
S'django.db.migrations.migration'
p294
sg12
g13
(g14
g15
NtRp295
(dp296
g18
I1
sg19
I0
sg20
I82
sg21
I0
sg22
I0
sg23
I34
sg24
I0
sbssg25
S'\xb8\x1cn\xbb\xa2,\xed[\xde\x0e\xd1I\x10}\xf5@'
p297
ssS'django_db_migrations_operations_models'
p298
(dp299
g6
(dp300
g8
S'django_db_migrations_operations_models.html'
p301
sg10
S'django.db.migrations.operations.models'
p302
sg12
g13
(g14
g15
NtRp303
(dp304
g18
I1
sg19
I0
sg20
I292
sg21
I0
sg22
I0
sg23
I167
sg24
I0
sbssg25
S'\xfe0\x97\x1a\xcd\xb9D\x866\xb7\x80\xdafc\xcde'
p305
ssS'django_db_migrations_questioner'
p306
(dp307
g6
(dp308
g8
S'django_db_migrations_questioner.html'
p309
sg10
S'django.db.migrations.questioner'
p310
sg12
g13
(g14
g15
NtRp311
(dp312
g18
I1
sg19
I0
sg20
I103
sg21
I0
sg22
I0
sg23
I77
sg24
I0
sbssg25
S'\xba+v\xc6]\xfa">7\xc2\x02\xdd\'\xc3|\xa2'
p313
ssS'django_db_migrations_topological_sort'
p314
(dp315
g6
(dp316
g8
S'django_db_migrations_topological_sort.html'
p317
sg10
S'django.db.migrations.topological_sort'
p318
sg12
g13
(g14
g15
NtRp319
(dp320
g18
I1
sg19
I0
sg20
I15
sg21
I0
sg22
I0
sg23
I13
sg24
I0
sbssg25
S'\x85\x06\x91\x1f\x0br\xe2\x8el\xb6cSt\x91\xec\x12'
p321
ssS'django_core_serializers_xml_serializer'
p322
(dp323
g6
(dp324
g8
S'django_core_serializers_xml_serializer.html'
p325
sg10
S'django.core.serializers.xml_serializer'
p326
sg12
g13
(g14
g15
NtRp327
(dp328
g18
I1
sg19
I0
sg20
I212
sg21
I0
sg22
I0
sg23
I165
sg24
I0
sbssg25
S'\x96{<\xa7\xc1/5IT\xd8\xd6\x1aU\x1e\xe5c'
p329
ssS'django_db_migrations_executor'
p330
(dp331
g6
(dp332
g8
S'django_db_migrations_executor.html'
p333
sg10
S'django.db.migrations.executor'
p334
sg12
g13
(g14
g15
NtRp335
(dp336
g18
I1
sg19
I0
sg20
I122
sg21
I0
sg22
I0
sg23
I57
sg24
I0
sbssg25
S'=\x8e\xdb\xacj\xc7\x06r\xacwX\xe1\x92f\xc4\xf6'
p337
ssS'django_contrib_sessions_migrations'
p338
(dp339
g6
(dp340
g8
S'django_contrib_sessions_migrations.html'
p341
sg10
S'django.contrib.sessions.migrations'
p342
sg12
g13
(g14
g15
NtRp343
(dp344
g18
I1
sg19
I0
sg20
I0
sg21
I0
sg22
I0
sg23
I0
sg24
I0
sbssg25
S'\xca\xf5\x9f\x7f\x88\xdfa\x831|T\x1d\xbc}\xa5v'
p345
ssS'publications_migrations'
p346
(dp347
g6
(dp348
g8
S'publications_migrations.html'
p349
sg10
S'publications.migrations'
p350
sg12
g13
(g14
g15
NtRp351
(dp352
g18
I1
sg19
I0
sg20
I0
sg21
I0
sg22
I0
sg23
I0
sg24
I0
sbssg25
S'\xca\xf5\x9f\x7f\x88\xdfa\x831|T\x1d\xbc}\xa5v'
p353
ssS'django_core_cache_backends_db'
p354
(dp355
g6
(dp356
g8
S'django_core_cache_backends_db.html'
p357
sg10
S'django.core.cache.backends.db'
p358
sg12
g13
(g14
g15
NtRp359
(dp360
g18
I1
sg19
I0
sg20
I133
sg21
I0
sg22
I0
sg23
I110
sg24
I0
sbssg25
S'\x94\x0f6\x8b\x1a\xde\n\x18?\x8b\xf1\xa56\xecO\x89'
p361
ssS'django_contrib_sessions_management'
p362
(dp363
g6
(dp364
g8
S'django_contrib_sessions_management.html'
p365
sg10
S'django.contrib.sessions.management'
p366
sg12
g13
(g14
g15
NtRp367
(dp368
g18
I1
sg19
I0
sg20
I0
sg21
I0
sg22
I0
sg23
I0
sg24
I0
sbssg25
S'\xca\xf5\x9f\x7f\x88\xdfa\x831|T\x1d\xbc}\xa5v'
p369
ssS'django_contrib_contenttypes_migrations_0001_initial'
p370
(dp371
g6
(dp372
g8
S'django_contrib_contenttypes_migrations_0001_initial.html'
p373
sg10
S'django.contrib.contenttypes.migrations.0001_initial'
p374
sg12
g13
(g14
g15
NtRp375
(dp376
g18
I1
sg19
I0
sg20
I6
sg21
I0
sg22
I0
sg23
I0
sg24
I0
sbssg25
S'\x8eJ\x11P\xf9q5\xb4\xb0i\xc7y\x8f\xda\xb0\x8f'
p377
ssS'PIL_ImagePalette'
p378
(dp379
g6
(dp380
g8
S'PIL_ImagePalette.html'
p381
sg10
S'PIL.ImagePalette'
p382
sg12
g13
(g14
g15
NtRp383
(dp384
g18
I1
sg19
I0
sg20
I135
sg21
I0
sg22
I0
sg23
I115
sg24
I0
sbssg25
S'\x10\xcdA\xaa\xbeL\x95\x8c\xb6\x86\x8fJ\xf1\xe3\xc7\x13'
p385
ssS'django_db_models_sql_compiler'
p386
(dp387
g6
(dp388
g8
S'django_db_models_sql_compiler.html'
p389
sg10
S'django.db.models.sql.compiler'
p390
sg12
g13
(g14
g15
NtRp391
(dp392
g18
I1
sg19
I0
sg20
I647
sg21
I0
sg22
I0
sg23
I294
sg24
I0
sbssg25
S'\xd9\x0b\xd4\xcb\x19\x91\xd3\x1f\x17\xc4\x9a\xef\x9cz\xfbF'
p393
ssS'django_contrib_sites_migrations'
p394
(dp395
g6
(dp396
g8
S'django_contrib_sites_migrations.html'
p397
sg10
S'django.contrib.sites.migrations'
p398
sg12
g13
(g14
g15
NtRp399
(dp400
g18
I1
sg19
I0
sg20
I0
sg21
I0
sg22
I0
sg23
I0
sg24
I0
sbssg25
S'\xca\xf5\x9f\x7f\x88\xdfa\x831|T\x1d\xbc}\xa5v'
p401
ssS'portal_migrations_0002_lang_default'
p402
(dp403
g6
(dp404
g8
S'portal_migrations_0002_lang_default.html'
p405
sg10
S'portal.migrations.0002_lang_default'
p406
sg12
g13
(g14
g15
NtRp407
(dp408
g18
I1
sg19
I0
sg20
I5
sg21
I0
sg22
I0
sg23
I0
sg24
I0
sbssg25
S"\xae\x0b\xbc*-\x023'/\xc2i\xacBT\xf3\x18"
p409
ssS'PIL_GifImagePlugin'
p410
(dp411
g6
(dp412
g8
S'PIL_GifImagePlugin.html'
p413
sg10
S'PIL.GifImagePlugin'
p414
sg12
g13
(g14
g15
NtRp415
(dp416
g18
I1
sg19
I0
sg20
I278
sg21
I0
sg22
I0
sg23
I248
sg24
I0
sbssg25
S'\x16z@\xf5\xc1^\xa8\xb5\xf7\xe7\xf7\x02h\xc5\xa4M'
p417
ssS'django_db_migrations_operations_base'
p418
(dp419
g6
(dp420
g8
S'django_db_migrations_operations_base.html'
p421
sg10
S'django.db.migrations.operations.base'
p422
sg12
g13
(g14
g15
NtRp423
(dp424
g18
I1
sg19
I0
sg20
I31
sg21
I0
sg22
I0
sg23
I9
sg24
I0
sbssg25
S'\x1d\xdb#\xc3>4\xb0\xbbdk\xe3\xca\x8c\x7f\xab\xe9'
p425
ssS'django_contrib_admin_migrations'
p426
(dp427
g6
(dp428
g8
S'django_contrib_admin_migrations.html'
p429
sg10
S'django.contrib.admin.migrations'
p430
sg12
g13
(g14
g15
NtRp431
(dp432
g18
I1
sg19
I0
sg20
I0
sg21
I0
sg22
I0
sg23
I0
sg24
I0
sbssg25
S'\xca\xf5\x9f\x7f\x88\xdfa\x831|T\x1d\xbc}\xa5v'
p433
ssS'django_contrib_sites_migrations_0001_initial'
p434
(dp435
g6
(dp436
g8
S'django_contrib_sites_migrations_0001_initial.html'
p437
sg10
S'django.contrib.sites.migrations.0001_initial'
p438
sg12
g13
(g14
g15
NtRp439
(dp440
g18
I1
sg19
I0
sg20
I7
sg21
I0
sg22
I0
sg23
I0
sg24
I0
sbssg25
S'!^\xd3\xfc\x1f\xe5\xf4\xcf\x15\xdfM\x08\x9c;\xa6J'
p441
ssS'django_contrib_auth_migrations_0004_alter_user_username_opts'
p442
(dp443
g6
(dp444
g8
S'django_contrib_auth_migrations_0004_alter_user_username_opts.html'
p445
sg10
S'django.contrib.auth.migrations.0004_alter_user_username_opts'
p446
sg12
g13
(g14
g15
NtRp447
(dp448
g18
I1
sg19
I0
sg20
I6
sg21
I0
sg22
I0
sg23
I0
sg24
I0
sbssg25
S'Z\x97\xcf\x85\x98S\xfel\x99b\x81\x02\x9c\x8f\x027'
p449
ssS'PIL_BmpImagePlugin'
p450
(dp451
g6
(dp452
g8
S'PIL_BmpImagePlugin.html'
p453
sg10
S'PIL.BmpImagePlugin'
p454
sg12
g13
(g14
g15
NtRp455
(dp456
g18
I1
sg19
I0
sg20
I136
sg21
I0
sg22
I0
sg23
I108
sg24
I0
sbssg25
S'\xdb \x1ey\xe5\x87g\xbb\x009\xdc\xe2\xb6\xb2i\x92'
p457
ssS'filebrowser_management'
p458
(dp459
g6
(dp460
g8
S'filebrowser_management.html'
p461
sg10
S'filebrowser.management'
p462
sg12
g13
(g14
g15
NtRp463
(dp464
g18
I1
sg19
I0
sg20
I0
sg21
I0
sg22
I0
sg23
I0
sg24
I0
sbssg25
S'\xca\xf5\x9f\x7f\x88\xdfa\x831|T\x1d\xbc}\xa5v'
p465
ssS'portal_migrations'
p466
(dp467
g6
(dp468
g8
S'portal_migrations.html'
p469
sg10
S'portal.migrations'
p470
sg12
g13
(g14
g15
NtRp471
(dp472
g18
I1
sg19
I0
sg20
I0
sg21
I0
sg22
I0
sg23
I0
sg24
I0
sbssg25
S'\xca\xf5\x9f\x7f\x88\xdfa\x831|T\x1d\xbc}\xa5v'
p473
ssS'PIL_TiffImagePlugin'
p474
(dp475
g6
(dp476
g8
S'PIL_TiffImagePlugin.html'
p477
sg10
S'PIL.TiffImagePlugin'
p478
sg12
g13
(g14
g15
NtRp479
(dp480
g18
I1
sg19
I0
sg20
I636
sg21
I0
sg22
I0
sg23
I515
sg24
I0
sbssg25
S'\xbbCKu\xbc\xf9c\x12\xeb\xfbG}\xbf\x9d\xa7]'
p481
ssS'django_contrib_contenttypes_migrations_0002_remove_content_type_name'
p482
(dp483
g6
(dp484
g8
S'django_contrib_contenttypes_migrations_0002_remove_content_type_name.html'
p485
sg10
S'django.contrib.contenttypes.migrations.0002_remove_content_type_name'
p486
sg12
g13
(g14
g15
NtRp487
(dp488
g18
I1
sg19
I0
sg20
I13
sg21
I0
sg22
I0
sg23
I7
sg24
I0
sbssg25
S'\xeaZ\xebI\x9cz!\x0e\x11\x99AlZn\xbd\xe0'
p489
ssS'django_db_migrations_operations_fields'
p490
(dp491
g6
(dp492
g8
S'django_db_migrations_operations_fields.html'
p493
sg10
S'django.db.migrations.operations.fields'
p494
sg12
g13
(g14
g15
NtRp495
(dp496
g18
I1
sg19
I0
sg20
I163
sg21
I0
sg22
I0
sg23
I67
sg24
I0
sbssg25
S'\xf6[!,\x99J\x1e\xf9\xd2\xa3tk\xf3 \xb9\xad'
p497
ssS'django_db_migrations_operations_special'
p498
(dp499
g6
(dp500
g8
S'django_db_migrations_operations_special.html'
p501
sg10
S'django.db.migrations.operations.special'
p502
sg12
g13
(g14
g15
NtRp503
(dp504
g18
I1
sg19
I0
sg20
I118
sg21
I0
sg22
I0
sg23
I76
sg24
I0
sbssg25
S'\x1c\x96\xe8\x16ZSM\x1fx\x02\xe5\x8e\x0f\xda\xf0"'
p505
ssS'PIL_ImageFile'
p506
(dp507
g6
(dp508
g8
S'PIL_ImageFile.html'
p509
sg10
S'PIL.ImageFile'
p510
sg12
g13
(g14
g15
NtRp511
(dp512
g18
I1
sg19
I0
sg20
I275
sg21
I0
sg22
I0
sg23
I157
sg24
I0
sbssg25
S'\x12\x16\x9fe\x8f\x84(\xae\x06\xf7H\xf2dO;v'
p513
ssS'django_contrib_contenttypes_migrations'
p514
(dp515
g6
(dp516
g8
S'django_contrib_contenttypes_migrations.html'
p517
sg10
S'django.contrib.contenttypes.migrations'
p518
sg12
g13
(g14
g15
NtRp519
(dp520
g18
I1
sg19
I0
sg20
I0
sg21
I0
sg22
I0
sg23
I0
sg24
I0
sbssg25
S'\xca\xf5\x9f\x7f\x88\xdfa\x831|T\x1d\xbc}\xa5v'
p521
ssS'PIL_JpegImagePlugin'
p522
(dp523
g6
(dp524
g8
S'PIL_JpegImagePlugin.html'
p525
sg10
S'PIL.JpegImagePlugin'
p526
sg12
g13
(g14
g15
NtRp527
(dp528
g18
I1
sg19
I0
sg20
I372
sg21
I0
sg22
I0
sg23
I214
sg24
I0
sbssg25
S'\xde\xff~\xf4\xf8"\xb5\x00A\x18[\xe3\x82L\xf0W'
p529
ssS'portal_migrations_0005_auto_20150615_2100'
p530
(dp531
g6
(dp532
g8
S'portal_migrations_0005_auto_20150615_2100.html'
p533
sg10
S'portal.migrations.0005_auto_20150615_2100'
p534
sg12
g13
(g14
g15
NtRp535
(dp536
g18
I1
sg19
I0
sg20
I5
sg21
I0
sg22
I0
sg23
I0
sg24
I0
sbssg25
S't\xac\x10_\x91\xa5\x044\xae\xca,\xe8x\xfd\xab6'
p537
ssS'django_db_migrations_autodetector'
p538
(dp539
g6
(dp540
g8
S'django_db_migrations_autodetector.html'
p541
sg10
S'django.db.migrations.autodetector'
p542
sg12
g13
(g14
g15
NtRp543
(dp544
g18
I1
sg19
I0
sg20
I538
sg21
I0
sg22
I0
sg23
I494
sg24
I0
sbssg25
S'\x16\x10\x97\xea\x89\x92\xdf\xeb\x8b\xdfG^s\x87\xf7\xe2'
p545
sssS'version'
p546
S'3.7.1'
p547
sS'settings'
p548
S'\xcd\xbb\xc1\xe2\\\x8bn\xcf\xfd\xde\x13\xda\xa7\xfb\x84G'
p549
sS'format'
p550
I1
s.